target datalayout = "e-m:e-p270:32:32-p271:32:32-p272:64:64-i64:64-i128:128-f80:128-n8:16:32:64-S128"
target triple = "x86_64-pc-linux-gnu"

%"class.std::__cxx11::basic_string" = type { %"struct.std::__cxx11::basic_string<char>::_Alloc_hider", i64, %union.anon.10 }
%"struct.std::__cxx11::basic_string<char>::_Alloc_hider" = type { ptr }
%union.anon.10 = type { i64, [8 x i8] }
%class.anon.731 = type { i8 }

@.str.493 = private unnamed_addr constant [6 x i8] c"int64\00", align 1

; Function Attrs: mustprogress uwtable
define internal noundef i64 @_ZL8getInt64P9lua_Statei(ptr noundef %0, i32 noundef %1) #4 {
  %3 = alloca i64, align 8
  %4 = alloca ptr, align 8
  %5 = alloca i32, align 4
  %6 = alloca ptr, align 8
  store ptr %0, ptr %4, align 8
  store i32 %1, ptr %5, align 4
  %7 = load ptr, ptr %4, align 8
  %8 = load i32, ptr %5, align 4
  %9 = call noundef ptr @_Z20lua_touserdatataggedP9lua_Stateii(ptr noundef %7, i32 noundef %8, i32 noundef 1)
  store ptr %9, ptr %6, align 8
  %10 = load ptr, ptr %6, align 8
  %11 = icmp ne ptr %10, null
  br i1 %11, label %12, label %15

12:                                               ; preds = %2
  %13 = load ptr, ptr %6, align 8
  %14 = load i64, ptr %13, align 8
  store i64 %14, ptr %3, align 8
  br label %27

15:                                               ; preds = %2
  %16 = load ptr, ptr %4, align 8
  %17 = load i32, ptr %5, align 4
  %18 = call noundef i32 @_Z12lua_isnumberP9lua_Statei(ptr noundef %16, i32 noundef %17)
  %19 = icmp ne i32 %18, 0
  br i1 %19, label %20, label %25

20:                                               ; preds = %15
  %21 = load ptr, ptr %4, align 8
  %22 = load i32, ptr %5, align 4
  %23 = call noundef i32 @_Z14lua_tointegerxP9lua_StateiPi(ptr noundef %21, i32 noundef %22, ptr noundef null)
  %24 = sext i32 %23 to i64
  store i64 %24, ptr %3, align 8
  br label %27

25:                                               ; preds = %15
  %26 = load ptr, ptr %4, align 8
  call void @_Z15luaL_typeerrorLP9lua_StateiPKc(ptr noundef %26, i32 noundef 1, ptr noundef @.str.493) #19
  unreachable

27:                                               ; preds = %20, %12
  %28 = load i64, ptr %3, align 8
  ret i64 %28
}

; Function Attrs: mustprogress uwtable
define internal noundef i32 @"_ZZZL21DOCTEST_ANON_FUNC_128vENK3$_0clEP9lua_StateENKUlS1_E12_clES1_"(ptr noundef nonnull align 1 dereferenceable(1) %0, ptr noundef %1) #4 align 2 personality ptr @__gxx_personality_v0 {
  %3 = alloca ptr, align 8
  %4 = alloca ptr, align 8
  %5 = alloca i64, align 8
  %6 = alloca %"class.std::__cxx11::basic_string", align 8
  %7 = alloca ptr, align 8
  %8 = alloca i32, align 4
  store ptr %0, ptr %3, align 8
  store ptr %1, ptr %4, align 8
  %9 = load ptr, ptr %4, align 8
  %10 = call noundef i64 @_ZL8getInt64P9lua_Statei(ptr noundef %9, i32 noundef 1)
  store i64 %10, ptr %5, align 8
  %11 = load i64, ptr %5, align 8
  call void @_ZNSt7__cxx119to_stringEl(ptr dead_on_unwind writable sret(%"class.std::__cxx11::basic_string") align 8 %6, i64 noundef %11)
  %12 = load ptr, ptr %4, align 8
  %13 = call noundef ptr @_ZNKSt7__cxx1112basic_stringIcSt11char_traitsIcESaIcEE5c_strEv(ptr noundef nonnull align 8 dereferenceable(32) %6) #16
  %14 = call noundef i64 @_ZNKSt7__cxx1112basic_stringIcSt11char_traitsIcESaIcEE6lengthEv(ptr noundef nonnull align 8 dereferenceable(32) %6) #16
  invoke void @_Z15lua_pushlstringP9lua_StatePKcm(ptr noundef %12, ptr noundef %13, i64 noundef %14)
          to label %15 unwind label %16

15:                                               ; preds = %2
  call void @_ZNSt7__cxx1112basic_stringIcSt11char_traitsIcESaIcEED1Ev(ptr noundef nonnull align 8 dereferenceable(32) %6) #16
  ret i32 1

16:                                               ; preds = %2
  %17 = landingpad { ptr, i32 }
          cleanup
  %18 = extractvalue { ptr, i32 } %17, 0
  store ptr %18, ptr %7, align 8
  %19 = extractvalue { ptr, i32 } %17, 1
  store i32 %19, ptr %8, align 4
  call void @_ZNSt7__cxx1112basic_stringIcSt11char_traitsIcESaIcEED1Ev(ptr noundef nonnull align 8 dereferenceable(32) %6) #16
  br label %20

20:                                               ; preds = %16
  %21 = load ptr, ptr %7, align 8
  %22 = load i32, ptr %8, align 4
  %23 = insertvalue { ptr, i32 } poison, ptr %21, 0
  %24 = insertvalue { ptr, i32 } %23, i32 %22, 1
  resume { ptr, i32 } %24
}

; Function Attrs: mustprogress uwtable
define internal noundef i32 @"_ZZZL21DOCTEST_ANON_FUNC_128vENK3$_0clEP9lua_StateENUlS1_E12_8__invokeES1_"(ptr noundef %0) #4 align 2 {
  %2 = alloca ptr, align 8
  %3 = alloca %class.anon.731, align 1
  store ptr %0, ptr %2, align 8
  %4 = load ptr, ptr %2, align 8
  %5 = call noundef i32 @"_ZZZL21DOCTEST_ANON_FUNC_128vENK3$_0clEP9lua_StateENKUlS1_E12_clES1_"(ptr noundef nonnull align 1 dereferenceable(1) %3, ptr noundef %4)
  ret i32 %5
}