; Function Attrs: mustprogress uwtable
define internal noundef i32 @"_ZZZL21DOCTEST_ANON_FUNC_128vENK3$_0clEP9lua_StateENUlS1_E12_8__invokeES1_"(ptr noundef %0) #4 align 2 personality ptr @__gxx_personality_v0 {
  %2 = alloca %"class.std::__cxx11::basic_string", align 8
  call void @llvm.lifetime.start.p0(i64 32, ptr nonnull %2)
  %3 = tail call noundef ptr @_Z20lua_touserdatataggedP9lua_Stateii(ptr noundef %0, i32 noundef 1, i32 noundef 1)
  %.not.i.i = icmp eq ptr %3, null
  br i1 %.not.i.i, label %6, label %4

4:                                                ; preds = %1
  %5 = load i64, ptr %3, align 8
  br label %_ZL8getInt64P9lua_Statei.exit.i

6:                                                ; preds = %1
  %7 = tail call noundef i32 @_Z12lua_isnumberP9lua_Statei(ptr noundef %0, i32 noundef 1)
  %.not10.i.i = icmp eq i32 %7, 0
  br i1 %.not10.i.i, label %11, label %8

8:                                                ; preds = %6
  %9 = tail call noundef i32 @_Z14lua_tointegerxP9lua_StateiPi(ptr noundef %0, i32 noundef 1, ptr noundef null)
  %10 = sext i32 %9 to i64
  br label %_ZL8getInt64P9lua_Statei.exit.i

11:                                               ; preds = %6
  tail call void @_Z15luaL_typeerrorLP9lua_StateiPKc(ptr noundef %0, i32 noundef 1, ptr noundef nonnull @.str.493) #34
  unreachable

_ZL8getInt64P9lua_Statei.exit.i:                  ; preds = %8, %4
  %.0.i.i = phi i64 [ %5, %4 ], [ %10, %8 ]
  call void @_ZNSt7__cxx119to_stringEl(ptr dead_on_unwind nonnull writable sret(%"class.std::__cxx11::basic_string") align 8 %2, i64 noundef %.0.i.i)
  %12 = call noundef ptr @_ZNKSt7__cxx1112basic_stringIcSt11char_traitsIcESaIcEE5c_strEv(ptr noundef nonnull align 8 dereferenceable(32) %2) #35
  %13 = call noundef i64 @_ZNKSt7__cxx1112basic_stringIcSt11char_traitsIcESaIcEE6lengthEv(ptr noundef nonnull align 8 dereferenceable(32) %2) #35
  invoke void @_Z15lua_pushlstringP9lua_StatePKcm(ptr noundef %0, ptr noundef %12, i64 noundef %13)
          to label %"_ZZZL21DOCTEST_ANON_FUNC_128vENK3$_0clEP9lua_StateENKUlS1_E12_clES1_.exit" unwind label %14

14:                                               ; preds = %_ZL8getInt64P9lua_Statei.exit.i
  %15 = landingpad { ptr, i32 }
          cleanup
  call void @_ZNSt7__cxx1112basic_stringIcSt11char_traitsIcESaIcEED1Ev(ptr noundef nonnull align 8 dereferenceable(32) %2) #35
  resume { ptr, i32 } %15

"_ZZZL21DOCTEST_ANON_FUNC_128vENK3$_0clEP9lua_StateENKUlS1_E12_clES1_.exit": ; preds = %_ZL8getInt64P9lua_Statei.exit.i
  call void @_ZNSt7__cxx1112basic_stringIcSt11char_traitsIcESaIcEED1Ev(ptr noundef nonnull align 8 dereferenceable(32) %2) #35
  call void @llvm.lifetime.end.p0(i64 32, ptr nonnull %2)
  ret i32 1
}